target datalayout = "e-m:e-p270:32:32-p271:32:32-p272:64:64-i64:64-i128:128-f80:128-n8:16:32:64-S128"
target triple = "x86_64-pc-linux-gnu"

%struct.nghttp2_map = type { ptr, ptr, i64, i32, i32 }
%struct.nghttp2_map_bucket = type { i32, i32, ptr }

; Function Attrs: nounwind uwtable
define internal void @map_bucket_swap(ptr noundef %0, ptr noundef %1, ptr noundef %2, ptr noundef %3) #0 {
  %5 = alloca ptr, align 8
  %6 = alloca ptr, align 8
  %7 = alloca ptr, align 8
  %8 = alloca ptr, align 8
  %9 = alloca i32, align 4
  %10 = alloca i32, align 4
  %11 = alloca ptr, align 8
  store ptr %0, ptr %5, align 8
  store ptr %1, ptr %6, align 8
  store ptr %2, ptr %7, align 8
  store ptr %3, ptr %8, align 8
  %12 = load ptr, ptr %5, align 8
  %13 = getelementptr inbounds %struct.nghttp2_map_bucket, ptr %12, i32 0, i32 0
  %14 = load i32, ptr %13, align 8
  store i32 %14, ptr %9, align 4
  %15 = load ptr, ptr %5, align 8
  %16 = getelementptr inbounds %struct.nghttp2_map_bucket, ptr %15, i32 0, i32 1
  %17 = load i32, ptr %16, align 4
  store i32 %17, ptr %10, align 4
  %18 = load ptr, ptr %5, align 8
  %19 = getelementptr inbounds %struct.nghttp2_map_bucket, ptr %18, i32 0, i32 2
  %20 = load ptr, ptr %19, align 8
  store ptr %20, ptr %11, align 8
  %21 = load ptr, ptr %6, align 8
  %22 = load i32, ptr %21, align 4
  %23 = load ptr, ptr %5, align 8
  %24 = getelementptr inbounds %struct.nghttp2_map_bucket, ptr %23, i32 0, i32 0
  store i32 %22, ptr %24, align 8
  %25 = load ptr, ptr %7, align 8
  %26 = load i32, ptr %25, align 4
  %27 = load ptr, ptr %5, align 8
  %28 = getelementptr inbounds %struct.nghttp2_map_bucket, ptr %27, i32 0, i32 1
  store i32 %26, ptr %28, align 4
  %29 = load ptr, ptr %8, align 8
  %30 = load ptr, ptr %29, align 8
  %31 = load ptr, ptr %5, align 8
  %32 = getelementptr inbounds %struct.nghttp2_map_bucket, ptr %31, i32 0, i32 2
  store ptr %30, ptr %32, align 8
  %33 = load i32, ptr %9, align 4
  %34 = load ptr, ptr %6, align 8
  store i32 %33, ptr %34, align 4
  %35 = load i32, ptr %10, align 4
  %36 = load ptr, ptr %7, align 8
  store i32 %35, ptr %36, align 4
  %37 = load ptr, ptr %11, align 8
  %38 = load ptr, ptr %8, align 8
  store ptr %37, ptr %38, align 8
  ret void
}

; Function Attrs: nounwind uwtable
define internal i64 @distance(i32 noundef %0, i32 noundef %1, ptr noundef %2, i64 noundef %3) #0 {
  %5 = alloca i32, align 4
  %6 = alloca i32, align 4
  %7 = alloca ptr, align 8
  %8 = alloca i64, align 8
  store i32 %0, ptr %5, align 4
  store i32 %1, ptr %6, align 4
  store ptr %2, ptr %7, align 8
  store i64 %3, ptr %8, align 8
  %9 = load i64, ptr %8, align 8
  %10 = load ptr, ptr %7, align 8
  %11 = getelementptr inbounds %struct.nghttp2_map_bucket, ptr %10, i32 0, i32 0
  %12 = load i32, ptr %11, align 8
  %13 = load i32, ptr %6, align 4
  %14 = call i64 @h2idx(i32 noundef %12, i32 noundef %13)
  %15 = sub i64 %9, %14
  %16 = load i32, ptr %5, align 4
  %17 = sub i32 %16, 1
  %18 = zext i32 %17 to i64
  %19 = and i64 %15, %18
  ret i64 %19
}

; Function Attrs: nounwind uwtable
define internal void @map_bucket_set_data(ptr noundef %0, i32 noundef %1, i32 noundef %2, ptr noundef %3) #0 {
  %5 = alloca ptr, align 8
  %6 = alloca i32, align 4
  %7 = alloca i32, align 4
  %8 = alloca ptr, align 8
  store ptr %0, ptr %5, align 8
  store i32 %1, ptr %6, align 4
  store i32 %2, ptr %7, align 4
  store ptr %3, ptr %8, align 8
  %9 = load i32, ptr %6, align 4
  %10 = load ptr, ptr %5, align 8
  %11 = getelementptr inbounds %struct.nghttp2_map_bucket, ptr %10, i32 0, i32 0
  store i32 %9, ptr %11, align 8
  %12 = load i32, ptr %7, align 4
  %13 = load ptr, ptr %5, align 8
  %14 = getelementptr inbounds %struct.nghttp2_map_bucket, ptr %13, i32 0, i32 1
  store i32 %12, ptr %14, align 4
  %15 = load ptr, ptr %8, align 8
  %16 = load ptr, ptr %5, align 8
  %17 = getelementptr inbounds %struct.nghttp2_map_bucket, ptr %16, i32 0, i32 2
  store ptr %15, ptr %17, align 8
  ret void
}

; Function Attrs: nounwind uwtable
define internal i64 @h2idx(i32 noundef %0, i32 noundef %1) #0 {
  %3 = alloca i32, align 4
  %4 = alloca i32, align 4
  store i32 %0, ptr %3, align 4
  store i32 %1, ptr %4, align 4
  %5 = load i32, ptr %3, align 4
  %6 = load i32, ptr %4, align 4
  %7 = sub i32 32, %6
  %8 = lshr i32 %5, %7
  %9 = zext i32 %8 to i64
  ret i64 %9
}

; Function Attrs: nounwind uwtable
define internal i32 @insert(ptr noundef %0, i32 noundef %1, i32 noundef %2, i32 noundef %3, i32 noundef %4, ptr noundef %5) #0 {
  %7 = alloca i32, align 4
  %8 = alloca ptr, align 8
  %9 = alloca i32, align 4
  %10 = alloca i32, align 4
  %11 = alloca i32, align 4
  %12 = alloca i32, align 4
  %13 = alloca ptr, align 8
  %14 = alloca i64, align 8
  %15 = alloca i64, align 8
  %16 = alloca i64, align 8
  %17 = alloca ptr, align 8
  store ptr %0, ptr %8, align 8
  store i32 %1, ptr %9, align 4
  store i32 %2, ptr %10, align 4
  store i32 %3, ptr %11, align 4
  store i32 %4, ptr %12, align 4
  store ptr %5, ptr %13, align 8
  %18 = load i32, ptr %11, align 4
  %19 = load i32, ptr %10, align 4
  %20 = call i64 @h2idx(i32 noundef %18, i32 noundef %19)
  store i64 %20, ptr %14, align 8
  store i64 0, ptr %15, align 8
  br label %21

21:                                               ; preds = %54, %6
  %22 = load ptr, ptr %8, align 8
  %23 = load i64, ptr %14, align 8
  %24 = getelementptr inbounds %struct.nghttp2_map_bucket, ptr %22, i64 %23
  store ptr %24, ptr %17, align 8
  %25 = load ptr, ptr %17, align 8
  %26 = getelementptr inbounds %struct.nghttp2_map_bucket, ptr %25, i32 0, i32 2
  %27 = load ptr, ptr %26, align 8
  %28 = icmp eq ptr %27, null
  br i1 %28, label %29, label %34

29:                                               ; preds = %21
  %30 = load ptr, ptr %17, align 8
  %31 = load i32, ptr %11, align 4
  %32 = load i32, ptr %12, align 4
  %33 = load ptr, ptr %13, align 8
  call void @map_bucket_set_data(ptr noundef %30, i32 noundef %31, i32 noundef %32, ptr noundef %33)
  store i32 0, ptr %7, align 4
  br label %63

34:                                               ; preds = %21
  %35 = load i32, ptr %9, align 4
  %36 = load i32, ptr %10, align 4
  %37 = load ptr, ptr %17, align 8
  %38 = load i64, ptr %14, align 8
  %39 = call i64 @distance(i32 noundef %35, i32 noundef %36, ptr noundef %37, i64 noundef %38)
  store i64 %39, ptr %16, align 8
  %40 = load i64, ptr %15, align 8
  %41 = load i64, ptr %16, align 8
  %42 = icmp ugt i64 %40, %41
  br i1 %42, label %43, label %46

43:                                               ; preds = %34
  %44 = load ptr, ptr %17, align 8
  call void @map_bucket_swap(ptr noundef %44, ptr noundef %11, ptr noundef %12, ptr noundef %13)
  %45 = load i64, ptr %16, align 8
  store i64 %45, ptr %15, align 8
  br label %54

46:                                               ; preds = %34
  %47 = load ptr, ptr %17, align 8
  %48 = getelementptr inbounds %struct.nghttp2_map_bucket, ptr %47, i32 0, i32 1
  %49 = load i32, ptr %48, align 4
  %50 = load i32, ptr %12, align 4
  %51 = icmp eq i32 %49, %50
  br i1 %51, label %52, label %53

52:                                               ; preds = %46
  store i32 -501, ptr %7, align 4
  br label %63

53:                                               ; preds = %46
  br label %54

54:                                               ; preds = %53, %43
  %55 = load i64, ptr %15, align 8
  %56 = add i64 %55, 1
  store i64 %56, ptr %15, align 8
  %57 = load i64, ptr %14, align 8
  %58 = add i64 %57, 1
  %59 = load i32, ptr %9, align 4
  %60 = sub i32 %59, 1
  %61 = zext i32 %60 to i64
  %62 = and i64 %58, %61
  store i64 %62, ptr %14, align 8
  br label %21

63:                                               ; preds = %52, %29
  %64 = load i32, ptr %7, align 4
  ret i32 %64
}

; Function Attrs: nounwind uwtable
define internal i32 @hash(i32 noundef %0) #0 {
  %2 = alloca i32, align 4
  store i32 %0, ptr %2, align 4
  %3 = load i32, ptr %2, align 4
  %4 = mul i32 %3, -1640531527
  ret i32 %4
}

; Function Attrs: nounwind uwtable
define internal i32 @map_resize(ptr noundef %0, i32 noundef %1, i32 noundef %2) #0 {
  %4 = alloca i32, align 4
  %5 = alloca ptr, align 8
  %6 = alloca i32, align 4
  %7 = alloca i32, align 4
  %8 = alloca i32, align 4
  %9 = alloca ptr, align 8
  %10 = alloca ptr, align 8
  %11 = alloca i32, align 4
  store ptr %0, ptr %5, align 8
  store i32 %1, ptr %6, align 4
  store i32 %2, ptr %7, align 4
  %12 = load ptr, ptr %5, align 8
  %13 = getelementptr inbounds %struct.nghttp2_map, ptr %12, i32 0, i32 1
  %14 = load ptr, ptr %13, align 8
  %15 = load i32, ptr %6, align 4
  %16 = zext i32 %15 to i64
  %17 = call ptr @nghttp2_mem_calloc(ptr noundef %14, i64 noundef %16, i64 noundef 16)
  store ptr %17, ptr %9, align 8
  %18 = load ptr, ptr %9, align 8
  %19 = icmp eq ptr %18, null
  br i1 %19, label %20, label %21

20:                                               ; preds = %3
  store i32 -901, ptr %4, align 4
  br label %73

21:                                               ; preds = %3
  store i32 0, ptr %8, align 4
  br label %22

22:                                               ; preds = %54, %21
  %23 = load i32, ptr %8, align 4
  %24 = load ptr, ptr %5, align 8
  %25 = getelementptr inbounds %struct.nghttp2_map, ptr %24, i32 0, i32 3
  %26 = load i32, ptr %25, align 8
  %27 = icmp ult i32 %23, %26
  br i1 %27, label %28, label %57

28:                                               ; preds = %22
  %29 = load ptr, ptr %5, align 8
  %30 = getelementptr inbounds %struct.nghttp2_map, ptr %29, i32 0, i32 0
  %31 = load ptr, ptr %30, align 8
  %32 = load i32, ptr %8, align 4
  %33 = zext i32 %32 to i64
  %34 = getelementptr inbounds %struct.nghttp2_map_bucket, ptr %31, i64 %33
  store ptr %34, ptr %10, align 8
  %35 = load ptr, ptr %10, align 8
  %36 = getelementptr inbounds %struct.nghttp2_map_bucket, ptr %35, i32 0, i32 2
  %37 = load ptr, ptr %36, align 8
  %38 = icmp eq ptr %37, null
  br i1 %38, label %39, label %40

39:                                               ; preds = %28
  br label %54

40:                                               ; preds = %28
  %41 = load ptr, ptr %9, align 8
  %42 = load i32, ptr %6, align 4
  %43 = load i32, ptr %7, align 4
  %44 = load ptr, ptr %10, align 8
  %45 = getelementptr inbounds %struct.nghttp2_map_bucket, ptr %44, i32 0, i32 0
  %46 = load i32, ptr %45, align 8
  %47 = load ptr, ptr %10, align 8
  %48 = getelementptr inbounds %struct.nghttp2_map_bucket, ptr %47, i32 0, i32 1
  %49 = load i32, ptr %48, align 4
  %50 = load ptr, ptr %10, align 8
  %51 = getelementptr inbounds %struct.nghttp2_map_bucket, ptr %50, i32 0, i32 2
  %52 = load ptr, ptr %51, align 8
  %53 = call i32 @insert(ptr noundef %41, i32 noundef %42, i32 noundef %43, i32 noundef %46, i32 noundef %49, ptr noundef %52)
  store i32 %53, ptr %11, align 4
  br label %54

54:                                               ; preds = %40, %39
  %55 = load i32, ptr %8, align 4
  %56 = add i32 %55, 1
  store i32 %56, ptr %8, align 4
  br label %22, !llvm.loop !9

57:                                               ; preds = %22
  %58 = load ptr, ptr %5, align 8
  %59 = getelementptr inbounds %struct.nghttp2_map, ptr %58, i32 0, i32 1
  %60 = load ptr, ptr %59, align 8
  %61 = load ptr, ptr %5, align 8
  %62 = getelementptr inbounds %struct.nghttp2_map, ptr %61, i32 0, i32 0
  %63 = load ptr, ptr %62, align 8
  call void @nghttp2_mem_free(ptr noundef %60, ptr noundef %63)
  %64 = load i32, ptr %6, align 4
  %65 = load ptr, ptr %5, align 8
  %66 = getelementptr inbounds %struct.nghttp2_map, ptr %65, i32 0, i32 3
  store i32 %64, ptr %66, align 8
  %67 = load i32, ptr %7, align 4
  %68 = load ptr, ptr %5, align 8
  %69 = getelementptr inbounds %struct.nghttp2_map, ptr %68, i32 0, i32 4
  store i32 %67, ptr %69, align 4
  %70 = load ptr, ptr %9, align 8
  %71 = load ptr, ptr %5, align 8
  %72 = getelementptr inbounds %struct.nghttp2_map, ptr %71, i32 0, i32 0
  store ptr %70, ptr %72, align 8
  store i32 0, ptr %4, align 4
  br label %73

73:                                               ; preds = %57, %20
  %74 = load i32, ptr %4, align 4
  ret i32 %74
}

; Function Attrs: nounwind uwtable
define dso_local i32 @nghttp2_map_insert(ptr noundef %0, i32 noundef %1, ptr noundef %2) #0 {
  %4 = alloca i32, align 4
  %5 = alloca ptr, align 8
  %6 = alloca i32, align 4
  %7 = alloca ptr, align 8
  %8 = alloca i32, align 4
  store ptr %0, ptr %5, align 8
  store i32 %1, ptr %6, align 4
  store ptr %2, ptr %7, align 8
  %9 = load ptr, ptr %5, align 8
  %10 = getelementptr inbounds %struct.nghttp2_map, ptr %9, i32 0, i32 2
  %11 = load i64, ptr %10, align 8
  %12 = add i64 %11, 1
  %13 = mul i64 %12, 4
  %14 = load ptr, ptr %5, align 8
  %15 = getelementptr inbounds %struct.nghttp2_map, ptr %14, i32 0, i32 3
  %16 = load i32, ptr %15, align 8
  %17 = mul i32 %16, 3
  %18 = zext i32 %17 to i64
  %19 = icmp ugt i64 %13, %18
  br i1 %19, label %20, label %36

20:                                               ; preds = %3
  %21 = load ptr, ptr %5, align 8
  %22 = load ptr, ptr %5, align 8
  %23 = getelementptr inbounds %struct.nghttp2_map, ptr %22, i32 0, i32 3
  %24 = load i32, ptr %23, align 8
  %25 = mul i32 %24, 2
  %26 = load ptr, ptr %5, align 8
  %27 = getelementptr inbounds %struct.nghttp2_map, ptr %26, i32 0, i32 4
  %28 = load i32, ptr %27, align 4
  %29 = add i32 %28, 1
  %30 = call i32 @map_resize(ptr noundef %21, i32 noundef %25, i32 noundef %29)
  store i32 %30, ptr %8, align 4
  %31 = load i32, ptr %8, align 4
  %32 = icmp ne i32 %31, 0
  br i1 %32, label %33, label %35

33:                                               ; preds = %20
  %34 = load i32, ptr %8, align 4
  store i32 %34, ptr %4, align 4
  br label %60

35:                                               ; preds = %20
  br label %36

36:                                               ; preds = %35, %3
  %37 = load ptr, ptr %5, align 8
  %38 = getelementptr inbounds %struct.nghttp2_map, ptr %37, i32 0, i32 0
  %39 = load ptr, ptr %38, align 8
  %40 = load ptr, ptr %5, align 8
  %41 = getelementptr inbounds %struct.nghttp2_map, ptr %40, i32 0, i32 3
  %42 = load i32, ptr %41, align 8
  %43 = load ptr, ptr %5, align 8
  %44 = getelementptr inbounds %struct.nghttp2_map, ptr %43, i32 0, i32 4
  %45 = load i32, ptr %44, align 4
  %46 = load i32, ptr %6, align 4
  %47 = call i32 @hash(i32 noundef %46)
  %48 = load i32, ptr %6, align 4
  %49 = load ptr, ptr %7, align 8
  %50 = call i32 @insert(ptr noundef %39, i32 noundef %42, i32 noundef %45, i32 noundef %47, i32 noundef %48, ptr noundef %49)
  store i32 %50, ptr %8, align 4
  %51 = load i32, ptr %8, align 4
  %52 = icmp ne i32 %51, 0
  br i1 %52, label %53, label %55

53:                                               ; preds = %36
  %54 = load i32, ptr %8, align 4
  store i32 %54, ptr %4, align 4
  br label %60

55:                                               ; preds = %36
  %56 = load ptr, ptr %5, align 8
  %57 = getelementptr inbounds %struct.nghttp2_map, ptr %56, i32 0, i32 2
  %58 = load i64, ptr %57, align 8
  %59 = add i64 %58, 1
  store i64 %59, ptr %57, align 8
  store i32 0, ptr %4, align 4
  br label %60

60:                                               ; preds = %55, %53, %33
  %61 = load i32, ptr %4, align 4
  ret i32 %61
}