; Function Attrs: nounwind uwtable
define dso_local range(i32 -901, 1) i32 @nghttp2_map_insert(ptr noundef captures(none) %0, i32 noundef %1, ptr noundef %2) local_unnamed_addr #0 {
  %4 = getelementptr inbounds nuw i8, ptr %0, i64 16
  %5 = load i64, ptr %4, align 8
  %6 = shl i64 %5, 2
  %7 = add i64 %6, 4
  %8 = getelementptr inbounds nuw i8, ptr %0, i64 24
  %9 = load i32, ptr %8, align 8
  %10 = mul i32 %9, 3
  %11 = zext i32 %10 to i64
  %12 = icmp ugt i64 %7, %11
  %13 = getelementptr inbounds nuw i8, ptr %0, i64 28
  %14 = load i32, ptr %13, align 4
  br i1 %12, label %15, label %._crit_edge

._crit_edge:                                      ; preds = %3
  %.pre = load ptr, ptr %0, align 8
  br label %70

15:                                               ; preds = %3
  %16 = shl i32 %9, 1
  %17 = add i32 %14, 1
  %18 = getelementptr inbounds nuw i8, ptr %0, i64 8
  %19 = load ptr, ptr %18, align 8
  %20 = zext i32 %16 to i64
  %21 = tail call ptr @nghttp2_mem_calloc(ptr noundef %19, i64 noundef %20, i64 noundef 16) #10
  %22 = icmp eq ptr %21, null
  br i1 %22, label %map_resize.exit, label %.preheader.i

.preheader.i:                                     ; preds = %15
  %23 = load i32, ptr %8, align 8
  %.not.i = icmp eq i32 %23, 0
  br i1 %.not.i, label %map_resize.exit.thread, label %.lr.ph.i

.lr.ph.i:                                         ; preds = %.preheader.i
  %24 = sub i32 31, %14
  %25 = add i32 %16, -1
  %26 = zext i32 %25 to i64
  br label %27

27:                                               ; preds = %insert.exit.i, %.lr.ph.i
  %indvars.iv.i = phi i64 [ 0, %.lr.ph.i ], [ %indvars.iv.next.i, %insert.exit.i ]
  %28 = load ptr, ptr %0, align 8
  %29 = getelementptr inbounds nuw %struct.nghttp2_map_bucket, ptr %28, i64 %indvars.iv.i
  %30 = getelementptr inbounds nuw i8, ptr %29, i64 8
  %31 = load ptr, ptr %30, align 8
  %32 = icmp eq ptr %31, null
  br i1 %32, label %insert.exit.i, label %33

33:                                               ; preds = %27
  %34 = load i32, ptr %29, align 8
  %35 = getelementptr inbounds nuw i8, ptr %29, i64 4
  %36 = load i32, ptr %35, align 4
  %37 = lshr i32 %34, %24
  %38 = zext i32 %37 to i64
  %39 = getelementptr inbounds nuw %struct.nghttp2_map_bucket, ptr %21, i64 %38
  %40 = getelementptr inbounds nuw i8, ptr %39, i64 8
  %41 = load ptr, ptr %40, align 8
  %42 = icmp eq ptr %41, null
  br i1 %42, label %._crit_edge.i.i, label %.lr.ph.i.i

._crit_edge.i.i:                                  ; preds = %57, %33
  %.029.lcssa.i.i = phi i32 [ %34, %33 ], [ %.130.i.i, %57 ]
  %.027.lcssa.i.i = phi i32 [ %36, %33 ], [ %.128.i.i, %57 ]
  %.025.lcssa.i.i = phi ptr [ %31, %33 ], [ %.126.i.i, %57 ]
  %.lcssa32.i.i = phi ptr [ %39, %33 ], [ %61, %57 ]
  %.lcssa.i.i = phi ptr [ %40, %33 ], [ %62, %57 ]
  store i32 %.029.lcssa.i.i, ptr %.lcssa32.i.i, align 8
  %43 = getelementptr inbounds nuw i8, ptr %.lcssa32.i.i, i64 4
  store i32 %.027.lcssa.i.i, ptr %43, align 4
  store ptr %.025.lcssa.i.i, ptr %.lcssa.i.i, align 8
  br label %insert.exit.i

.lr.ph.i.i:                                       ; preds = %33, %57
  %44 = phi ptr [ %63, %57 ], [ %41, %33 ]
  %45 = phi ptr [ %62, %57 ], [ %40, %33 ]
  %46 = phi ptr [ %61, %57 ], [ %39, %33 ]
  %.01741.i.i = phi i64 [ %60, %57 ], [ %38, %33 ]
  %.01840.i.i = phi i64 [ %58, %57 ], [ 0, %33 ]
  %.02539.i.i = phi ptr [ %.126.i.i, %57 ], [ %31, %33 ]
  %.02738.i.i = phi i32 [ %.128.i.i, %57 ], [ %36, %33 ]
  %.02937.i.i = phi i32 [ %.130.i.i, %57 ], [ %34, %33 ]
  %.val.i.i = load i32, ptr %46, align 8
  %47 = lshr i32 %.val.i.i, %24
  %48 = zext i32 %47 to i64
  %49 = sub nsw i64 %.01741.i.i, %48
  %50 = and i64 %49, %26
  %51 = icmp ugt i64 %.01840.i.i, %50
  %52 = getelementptr inbounds nuw i8, ptr %46, i64 4
  %53 = load i32, ptr %52, align 4
  br i1 %51, label %54, label %55

54:                                               ; preds = %.lr.ph.i.i
  store i32 %.02937.i.i, ptr %46, align 8
  store i32 %.02738.i.i, ptr %52, align 4
  store ptr %.02539.i.i, ptr %45, align 8
  br label %57

55:                                               ; preds = %.lr.ph.i.i
  %56 = icmp eq i32 %53, %.02738.i.i
  br i1 %56, label %insert.exit.i, label %57

57:                                               ; preds = %55, %54
  %.130.i.i = phi i32 [ %.val.i.i, %54 ], [ %.02937.i.i, %55 ]
  %.128.i.i = phi i32 [ %53, %54 ], [ %.02738.i.i, %55 ]
  %.126.i.i = phi ptr [ %44, %54 ], [ %.02539.i.i, %55 ]
  %.1.i.i = phi i64 [ %50, %54 ], [ %.01840.i.i, %55 ]
  %58 = add nuw nsw i64 %.1.i.i, 1
  %59 = add nuw nsw i64 %.01741.i.i, 1
  %60 = and i64 %59, %26
  %61 = getelementptr inbounds nuw %struct.nghttp2_map_bucket, ptr %21, i64 %60
  %62 = getelementptr inbounds nuw i8, ptr %61, i64 8
  %63 = load ptr, ptr %62, align 8
  %64 = icmp eq ptr %63, null
  br i1 %64, label %._crit_edge.i.i, label %.lr.ph.i.i

insert.exit.i:                                    ; preds = %55, %._crit_edge.i.i, %27
  %indvars.iv.next.i = add nuw nsw i64 %indvars.iv.i, 1
  %65 = load i32, ptr %8, align 8
  %66 = zext i32 %65 to i64
  %67 = icmp samesign ult i64 %indvars.iv.next.i, %66
  br i1 %67, label %27, label %map_resize.exit.thread, !llvm.loop !9

map_resize.exit.thread:                           ; preds = %insert.exit.i, %.preheader.i
  %68 = load ptr, ptr %18, align 8
  %69 = load ptr, ptr %0, align 8
  tail call void @nghttp2_mem_free(ptr noundef %68, ptr noundef %69) #10
  store i32 %16, ptr %8, align 8
  store i32 %17, ptr %13, align 4
  store ptr %21, ptr %0, align 8
  br label %70

70:                                               ; preds = %._crit_edge, %map_resize.exit.thread
  %71 = phi i32 [ %9, %._crit_edge ], [ %16, %map_resize.exit.thread ]
  %72 = phi i32 [ %14, %._crit_edge ], [ %17, %map_resize.exit.thread ]
  %73 = phi ptr [ %.pre, %._crit_edge ], [ %21, %map_resize.exit.thread ]
  %74 = mul i32 %1, -1640531527
  %75 = sub i32 32, %72
  %76 = lshr i32 %74, %75
  %77 = zext i32 %76 to i64
  %78 = getelementptr inbounds nuw %struct.nghttp2_map_bucket, ptr %73, i64 %77
  %79 = getelementptr inbounds nuw i8, ptr %78, i64 8
  %80 = load ptr, ptr %79, align 8
  %81 = icmp eq ptr %80, null
  br i1 %81, label %.loopexit, label %.lr.ph.i19

.lr.ph.i19:                                       ; preds = %70
  %82 = add i32 %71, -1
  %83 = zext i32 %82 to i64
  br label %84

84:                                               ; preds = %98, %.lr.ph.i19
  %85 = phi ptr [ %80, %.lr.ph.i19 ], [ %104, %98 ]
  %86 = phi ptr [ %79, %.lr.ph.i19 ], [ %103, %98 ]
  %87 = phi ptr [ %78, %.lr.ph.i19 ], [ %102, %98 ]
  %.01741.i = phi i64 [ %77, %.lr.ph.i19 ], [ %101, %98 ]
  %.01840.i = phi i64 [ 0, %.lr.ph.i19 ], [ %99, %98 ]
  %.02539.i = phi ptr [ %2, %.lr.ph.i19 ], [ %.126.i, %98 ]
  %.02738.i = phi i32 [ %1, %.lr.ph.i19 ], [ %.128.i, %98 ]
  %.02937.i = phi i32 [ %74, %.lr.ph.i19 ], [ %.130.i, %98 ]
  %.val.i = load i32, ptr %87, align 8
  %88 = lshr i32 %.val.i, %75
  %89 = zext i32 %88 to i64
  %90 = sub nsw i64 %.01741.i, %89
  %91 = and i64 %90, %83
  %92 = icmp ugt i64 %.01840.i, %91
  %93 = getelementptr inbounds nuw i8, ptr %87, i64 4
  %94 = load i32, ptr %93, align 4
  br i1 %92, label %95, label %96

95:                                               ; preds = %84
  store i32 %.02937.i, ptr %87, align 8
  store i32 %.02738.i, ptr %93, align 4
  store ptr %.02539.i, ptr %86, align 8
  br label %98

96:                                               ; preds = %84
  %97 = icmp eq i32 %94, %.02738.i
  br i1 %97, label %map_resize.exit, label %98

98:                                               ; preds = %96, %95
  %.130.i = phi i32 [ %.val.i, %95 ], [ %.02937.i, %96 ]
  %.128.i = phi i32 [ %94, %95 ], [ %.02738.i, %96 ]
  %.126.i = phi ptr [ %85, %95 ], [ %.02539.i, %96 ]
  %.1.i = phi i64 [ %91, %95 ], [ %.01840.i, %96 ]
  %99 = add nuw nsw i64 %.1.i, 1
  %100 = add nuw nsw i64 %.01741.i, 1
  %101 = and i64 %100, %83
  %102 = getelementptr inbounds nuw %struct.nghttp2_map_bucket, ptr %73, i64 %101
  %103 = getelementptr inbounds nuw i8, ptr %102, i64 8
  %104 = load ptr, ptr %103, align 8
  %105 = icmp eq ptr %104, null
  br i1 %105, label %.loopexit, label %84

.loopexit:                                        ; preds = %98, %70
  %.029.lcssa.i = phi i32 [ %74, %70 ], [ %.130.i, %98 ]
  %.027.lcssa.i = phi i32 [ %1, %70 ], [ %.128.i, %98 ]
  %.025.lcssa.i = phi ptr [ %2, %70 ], [ %.126.i, %98 ]
  %.lcssa32.i = phi ptr [ %78, %70 ], [ %102, %98 ]
  %.lcssa.i = phi ptr [ %79, %70 ], [ %103, %98 ]
  store i32 %.029.lcssa.i, ptr %.lcssa32.i, align 8
  %106 = getelementptr inbounds nuw i8, ptr %.lcssa32.i, i64 4
  store i32 %.027.lcssa.i, ptr %106, align 4
  store ptr %.025.lcssa.i, ptr %.lcssa.i, align 8
  %107 = load i64, ptr %4, align 8
  %108 = add i64 %107, 1
  store i64 %108, ptr %4, align 8
  br label %map_resize.exit

map_resize.exit:                                  ; preds = %96, %15, %.loopexit
  %.0 = phi i32 [ 0, %.loopexit ], [ -901, %15 ], [ -501, %96 ]
  ret i32 %.0
}